; Function Attrs: mustprogress uwtable
define void @_ZN3gmx8internal27BasicAverageHistogramModuleC2Ev(ptr noundef nonnull align 8 dereferenceable(152) %0) unnamed_addr #3 align 2 personality ptr @__gxx_personality_v0 {
  tail call void @_ZN3gmx25AbstractAnalysisArrayDataC2Ev(ptr noundef nonnull align 8 dereferenceable(94) %0)
  store ptr getelementptr inbounds inrange(-16, 40) ({ [7 x ptr] }, ptr @_ZTVN3gmx24AbstractAverageHistogramE, i64 0, i32 0, i64 2), ptr %0, align 8
  %2 = getelementptr inbounds i8, ptr %0, i64 96
  invoke void @_ZN3gmx25AnalysisHistogramSettingsC1Ev(ptr noundef nonnull align 4 dereferenceable(21) %2)
          to label %_ZN3gmx24AbstractAverageHistogramC2Ev.exit unwind label %3

3:                                                ; preds = %1
  %4 = landingpad { ptr, i32 }
          cleanup
  tail call void @_ZN3gmx25AbstractAnalysisArrayDataD2Ev(ptr noundef nonnull align 8 dereferenceable(94) %0) #26
  resume { ptr, i32 } %4

_ZN3gmx24AbstractAverageHistogramC2Ev.exit:       ; preds = %1
  %5 = getelementptr inbounds i8, ptr %0, i64 120
  store ptr getelementptr inbounds inrange(-16, 88) ({ [13 x ptr], [12 x ptr] }, ptr @_ZTVN3gmx8internal27BasicAverageHistogramModuleE, i64 0, i32 0, i64 2), ptr %0, align 8
  store ptr getelementptr inbounds inrange(-16, 80) ({ [13 x ptr], [12 x ptr] }, ptr @_ZTVN3gmx8internal27BasicAverageHistogramModuleE, i64 0, i32 1, i64 2), ptr %5, align 8
  %6 = getelementptr inbounds i8, ptr %0, i64 128
  tail call void @llvm.memset.p0.i64(ptr noundef nonnull align 8 dereferenceable(24) %6, i8 0, i64 24, i1 false)
  ret void
}